; Function Attrs: mustprogress nounwind uwtable
define hidden ptr @wrapGetLuggage(ptr readnone captures(none) %0, ptr noundef %1) #0 {
  %3 = tail call noundef ptr @_ZN19pybind11_conduit_v125get_raw_pointer_ephemeralEP7_objectPKSt9type_info(ptr noundef %1, ptr noundef nonnull @_ZTIN14pybind11_tests16test_cpp_conduit8TravelerE)
  %4 = icmp eq ptr %3, null
  br i1 %4, label %8, label %5

5:                                                ; preds = %2
  %6 = load ptr, ptr %3, align 8, !tbaa !3
  %7 = tail call ptr @PyUnicode_FromString(ptr noundef %6) #3
  br label %8

8:                                                ; preds = %2, %5
  %.0 = phi ptr [ %7, %5 ], [ null, %2 ]
  ret ptr %.0
}